target datalayout = "e-m:e-p270:32:32-p271:32:32-p272:64:64-i64:64-i128:128-f80:128-n8:16:32:64-S128"
target triple = "x86_64-pc-linux-gnu"

%struct._packet_info = type { ptr, ptr, i32, i32, %struct.nstime_t, %struct.nstime_t, %struct.nstime_t, i8, ptr, ptr, ptr, ptr, %struct._address, %struct._address, %struct._address, %struct._address, %struct._address, %struct._address, i32, ptr, i8, [3 x i8], %struct.anon, i32, i32, i32, i32, ptr, i8, ptr, ptr, i16, i16, i32, i32, i16, i32, i32, ptr, ptr, ptr, i8, i8, i16, i16, i16, i32, i16, i16, ptr, ptr, ptr, ptr, ptr, i32, i32 }
%struct.nstime_t = type { i64, i32 }
%struct._address = type { i32, i32, ptr, ptr }
%struct.anon = type { i8, [3 x i8] }
%struct._ndmp_conv_data_t = type { i8, ptr, ptr, ptr, ptr, ptr, ptr }

@hf_ndmp_error = internal global i32 0, align 4
@hf_ndmp_tape_invalid = internal global i32 0, align 4
@hf_ndmp_tape_flags = internal global i32 0, align 4
@hf_ndmp_tape_file_num = internal global i32 0, align 4
@hf_ndmp_tape_soft_errors = internal global i32 0, align 4
@hf_ndmp_tape_block_size = internal global i32 0, align 4
@hf_ndmp_tape_block_no = internal global i32 0, align 4
@hf_ndmp_tape_total_space = internal global i32 0, align 4
@hf_ndmp_tape_space_remain = internal global i32 0, align 4
@hf_ndmp_tape_partition = internal global i32 0, align 4
@ett_ndmp_tape_invalid = internal global i32 0, align 4
@ett_ndmp_tape_flags = internal global i32 0, align 4
@ndmp_default_protocol_version = internal global i32 4, align 4
@ndmp_conv_data = internal global ptr null, align 8
@.str.749 = private unnamed_addr constant [16 x i8] c" NDMP Error:%s \00", align 1
@.str.750 = private unnamed_addr constant [28 x i8] c"Unknown NDMP error code %#x\00", align 1
@dissect_tape_flags.tape_flags = internal constant [5 x ptr] [ptr @hf_ndmp_tape_flags_unload, ptr @hf_ndmp_tape_flags_error, ptr @hf_ndmp_tape_flags_write_protect, ptr @hf_ndmp_tape_flags_no_rewind, ptr null], align 16

; Function Attrs: nounwind null_pointer_is_valid sspstrong uwtable
define internal zeroext i8 @get_ndmp_protocol_version() #8 {
  %1 = alloca i8, align 1
  %2 = load ptr, ptr @ndmp_conv_data, align 8
  %3 = icmp ne ptr %2, null
  br i1 %3, label %4, label %10

4:                                                ; preds = %0
  %5 = load ptr, ptr @ndmp_conv_data, align 8
  %6 = getelementptr inbounds nuw %struct._ndmp_conv_data_t, ptr %5, i32 0, i32 0
  %7 = load i8, ptr %6, align 8
  %8 = zext i8 %7 to i32
  %9 = icmp eq i32 %8, 0
  br i1 %9, label %10, label %13

10:                                               ; preds = %4, %0
  %11 = load i32, ptr @ndmp_default_protocol_version, align 4
  %12 = trunc i32 %11 to i8
  store i8 %12, ptr %1, align 1
  br label %17

13:                                               ; preds = %4
  %14 = load ptr, ptr @ndmp_conv_data, align 8
  %15 = getelementptr inbounds nuw %struct._ndmp_conv_data_t, ptr %14, i32 0, i32 0
  %16 = load i8, ptr %15, align 8
  store i8 %16, ptr %1, align 1
  br label %17

17:                                               ; preds = %13, %10
  %18 = load i8, ptr %1, align 1
  ret i8 %18
}

; Function Attrs: null_pointer_is_valid sspstrong uwtable
define internal i32 @dissect_tape_flags(ptr noundef %0, i32 noundef %1, ptr noundef %2, ptr noundef %3) #0 {
  %5 = alloca ptr, align 8
  %6 = alloca i32, align 4
  %7 = alloca ptr, align 8
  %8 = alloca ptr, align 8
  store ptr %0, ptr %5, align 8
  store i32 %1, ptr %6, align 4
  store ptr %2, ptr %7, align 8
  store ptr %3, ptr %8, align 8
  %9 = load ptr, ptr %8, align 8
  %10 = load ptr, ptr %5, align 8
  %11 = load i32, ptr %6, align 4
  %12 = load i32, ptr @hf_ndmp_tape_flags, align 4
  %13 = load i32, ptr @ett_ndmp_tape_flags, align 4
  %14 = call ptr @proto_tree_add_bitmask(ptr noundef %9, ptr noundef %10, i32 noundef %11, i32 noundef %12, i32 noundef %13, ptr noundef @dissect_tape_flags.tape_flags, i32 noundef 0)
  %15 = load i32, ptr %6, align 4
  %16 = add i32 %15, 4
  store i32 %16, ptr %6, align 4
  %17 = load i32, ptr %6, align 4
  ret i32 %17
}

; Function Attrs: null_pointer_is_valid sspstrong uwtable
define internal i32 @dissect_error(ptr noundef %0, i32 noundef %1, ptr noundef %2, ptr noundef %3, i32 noundef %4) #0 {
  %6 = alloca ptr, align 8
  %7 = alloca i32, align 4
  %8 = alloca ptr, align 8
  %9 = alloca ptr, align 8
  %10 = alloca i32, align 4
  %11 = alloca i32, align 4
  store ptr %0, ptr %6, align 8
  store i32 %1, ptr %7, align 4
  store ptr %2, ptr %8, align 8
  store ptr %3, ptr %9, align 8
  store i32 %4, ptr %10, align 4
  call void @llvm.lifetime.start.p0(i64 4, ptr %11) #9
  %12 = load ptr, ptr %6, align 8
  %13 = load i32, ptr %7, align 4
  %14 = call i32 @tvb_get_ntohl(ptr noundef %12, i32 noundef %13)
  store i32 %14, ptr %11, align 4
  %15 = load ptr, ptr %9, align 8
  %16 = load i32, ptr @hf_ndmp_error, align 4
  %17 = load ptr, ptr %6, align 8
  %18 = load i32, ptr %7, align 4
  %19 = call ptr @proto_tree_add_item(ptr noundef %15, i32 noundef %16, ptr noundef %17, i32 noundef %18, i32 noundef 4, i32 noundef 0)
  %20 = load i32, ptr %11, align 4
  %21 = icmp ne i32 %20, 0
  br i1 %21, label %22, label %28

22:                                               ; preds = %5
  %23 = load ptr, ptr %8, align 8
  %24 = getelementptr inbounds nuw %struct._packet_info, ptr %23, i32 0, i32 1
  %25 = load ptr, ptr %24, align 8
  %26 = load i32, ptr %11, align 4
  %27 = call ptr @val_to_str(i32 noundef %26, ptr noundef @error_vals, ptr noundef @.str.750)
  call void (ptr, i32, ptr, ...) @col_append_fstr(ptr noundef %25, i32 noundef 25, ptr noundef @.str.749, ptr noundef %27)
  br label %28

28:                                               ; preds = %22, %5
  %29 = load i32, ptr %7, align 4
  %30 = add i32 %29, 4
  store i32 %30, ptr %7, align 4
  %31 = load i32, ptr %7, align 4
  call void @llvm.lifetime.end.p0(i64 4, ptr %11) #9
  ret i32 %31
}

; Function Attrs: null_pointer_is_valid sspstrong uwtable
define internal i32 @dissect_tape_invalid(ptr noundef %0, i32 noundef %1, ptr noundef %2, ptr noundef %3) #0 {
  %5 = alloca ptr, align 8
  %6 = alloca i32, align 4
  %7 = alloca ptr, align 8
  %8 = alloca ptr, align 8
  store ptr %0, ptr %5, align 8
  store i32 %1, ptr %6, align 4
  store ptr %2, ptr %7, align 8
  store ptr %3, ptr %8, align 8
  %9 = load ptr, ptr %8, align 8
  %10 = load ptr, ptr %5, align 8
  %11 = load i32, ptr %6, align 4
  %12 = load i32, ptr @hf_ndmp_tape_invalid, align 4
  %13 = load i32, ptr @ett_ndmp_tape_invalid, align 4
  %14 = call ptr @proto_tree_add_bitmask(ptr noundef %9, ptr noundef %10, i32 noundef %11, i32 noundef %12, i32 noundef %13, ptr noundef @dissect_tape_invalid.invalid_tapes, i32 noundef 0)
  %15 = load i32, ptr %6, align 4
  %16 = add i32 %15, 4
  store i32 %16, ptr %6, align 4
  %17 = load i32, ptr %6, align 4
  ret i32 %17
}

; Function Attrs: null_pointer_is_valid sspstrong uwtable
define internal i32 @dissect_tape_get_state_reply(ptr noundef %0, i32 noundef %1, ptr noundef %2, ptr noundef %3, i32 noundef %4) #0 {
  %6 = alloca i32, align 4
  %7 = alloca ptr, align 8
  %8 = alloca i32, align 4
  %9 = alloca ptr, align 8
  %10 = alloca ptr, align 8
  %11 = alloca i32, align 4
  store ptr %0, ptr %7, align 8
  store i32 %1, ptr %8, align 4
  store ptr %2, ptr %9, align 8
  store ptr %3, ptr %10, align 8
  store i32 %4, ptr %11, align 4
  %12 = load ptr, ptr %7, align 8
  %13 = load i32, ptr %8, align 4
  %14 = load ptr, ptr %9, align 8
  %15 = load ptr, ptr %10, align 8
  %16 = call i32 @dissect_tape_invalid(ptr noundef %12, i32 noundef %13, ptr noundef %14, ptr noundef %15)
  store i32 %16, ptr %8, align 4
  %17 = load ptr, ptr %7, align 8
  %18 = load i32, ptr %8, align 4
  %19 = load ptr, ptr %9, align 8
  %20 = load ptr, ptr %10, align 8
  %21 = load i32, ptr %11, align 4
  %22 = call i32 @dissect_error(ptr noundef %17, i32 noundef %18, ptr noundef %19, ptr noundef %20, i32 noundef %21)
  store i32 %22, ptr %8, align 4
  %23 = load ptr, ptr %7, align 8
  %24 = load i32, ptr %8, align 4
  %25 = load ptr, ptr %9, align 8
  %26 = load ptr, ptr %10, align 8
  %27 = call i32 @dissect_tape_flags(ptr noundef %23, i32 noundef %24, ptr noundef %25, ptr noundef %26)
  store i32 %27, ptr %8, align 4
  %28 = load ptr, ptr %10, align 8
  %29 = load i32, ptr @hf_ndmp_tape_file_num, align 4
  %30 = load ptr, ptr %7, align 8
  %31 = load i32, ptr %8, align 4
  %32 = call ptr @proto_tree_add_item(ptr noundef %28, i32 noundef %29, ptr noundef %30, i32 noundef %31, i32 noundef 4, i32 noundef 0)
  %33 = load i32, ptr %8, align 4
  %34 = add i32 %33, 4
  store i32 %34, ptr %8, align 4
  %35 = load ptr, ptr %10, align 8
  %36 = load i32, ptr @hf_ndmp_tape_soft_errors, align 4
  %37 = load ptr, ptr %7, align 8
  %38 = load i32, ptr %8, align 4
  %39 = call ptr @proto_tree_add_item(ptr noundef %35, i32 noundef %36, ptr noundef %37, i32 noundef %38, i32 noundef 4, i32 noundef 0)
  %40 = load i32, ptr %8, align 4
  %41 = add i32 %40, 4
  store i32 %41, ptr %8, align 4
  %42 = load ptr, ptr %10, align 8
  %43 = load i32, ptr @hf_ndmp_tape_block_size, align 4
  %44 = load ptr, ptr %7, align 8
  %45 = load i32, ptr %8, align 4
  %46 = call ptr @proto_tree_add_item(ptr noundef %42, i32 noundef %43, ptr noundef %44, i32 noundef %45, i32 noundef 4, i32 noundef 0)
  %47 = load i32, ptr %8, align 4
  %48 = add i32 %47, 4
  store i32 %48, ptr %8, align 4
  %49 = load ptr, ptr %10, align 8
  %50 = load i32, ptr @hf_ndmp_tape_block_no, align 4
  %51 = load ptr, ptr %7, align 8
  %52 = load i32, ptr %8, align 4
  %53 = call ptr @proto_tree_add_item(ptr noundef %49, i32 noundef %50, ptr noundef %51, i32 noundef %52, i32 noundef 4, i32 noundef 0)
  %54 = load i32, ptr %8, align 4
  %55 = add i32 %54, 4
  store i32 %55, ptr %8, align 4
  %56 = load ptr, ptr %7, align 8
  %57 = load ptr, ptr %10, align 8
  %58 = load i32, ptr @hf_ndmp_tape_total_space, align 4
  %59 = load i32, ptr %8, align 4
  %60 = call i32 @dissect_rpc_uint64(ptr noundef %56, ptr noundef %57, i32 noundef %58, i32 noundef %59)
  store i32 %60, ptr %8, align 4
  %61 = load ptr, ptr %7, align 8
  %62 = load ptr, ptr %10, align 8
  %63 = load i32, ptr @hf_ndmp_tape_space_remain, align 4
  %64 = load i32, ptr %8, align 4
  %65 = call i32 @dissect_rpc_uint64(ptr noundef %61, ptr noundef %62, i32 noundef %63, i32 noundef %64)
  store i32 %65, ptr %8, align 4
  %66 = call zeroext i8 @get_ndmp_protocol_version()
  %67 = zext i8 %66 to i32
  %68 = icmp eq i32 %67, 4
  br i1 %68, label %69, label %71

69:                                               ; preds = %5
  %70 = load i32, ptr %8, align 4
  store i32 %70, ptr %6, align 4
  br label %80

71:                                               ; preds = %5
  %72 = load ptr, ptr %10, align 8
  %73 = load i32, ptr @hf_ndmp_tape_partition, align 4
  %74 = load ptr, ptr %7, align 8
  %75 = load i32, ptr %8, align 4
  %76 = call ptr @proto_tree_add_item(ptr noundef %72, i32 noundef %73, ptr noundef %74, i32 noundef %75, i32 noundef 4, i32 noundef 0)
  %77 = load i32, ptr %8, align 4
  %78 = add i32 %77, 4
  store i32 %78, ptr %8, align 4
  %79 = load i32, ptr %8, align 4
  store i32 %79, ptr %6, align 4
  br label %80

80:                                               ; preds = %71, %69
  %81 = load i32, ptr %6, align 4
  ret i32 %81
}