; Function Attrs: null_pointer_is_valid sspstrong uwtable
define internal i32 @dissect_tape_get_state_reply(ptr noundef %0, i32 noundef %1, ptr noundef readonly captures(none) %2, ptr noundef %3, i32 %4) #0 {
  %6 = load i32, ptr @hf_ndmp_tape_invalid, align 4
  %7 = load i32, ptr @ett_ndmp_tape_invalid, align 4
  %8 = tail call ptr @proto_tree_add_bitmask(ptr noundef %3, ptr noundef %0, i32 noundef %1, i32 noundef %6, i32 noundef %7, ptr noundef nonnull @dissect_tape_invalid.invalid_tapes, i32 noundef 0)
  %9 = add i32 %1, 4
  %10 = tail call i32 @tvb_get_ntohl(ptr noundef %0, i32 noundef %9)
  %11 = load i32, ptr @hf_ndmp_error, align 4
  %12 = tail call ptr @proto_tree_add_item(ptr noundef %3, i32 noundef %11, ptr noundef %0, i32 noundef %9, i32 noundef 4, i32 noundef 0)
  %.not.i = icmp eq i32 %10, 0
  br i1 %.not.i, label %dissect_error.exit, label %13

13:                                               ; preds = %5
  %14 = getelementptr inbounds nuw i8, ptr %2, i64 8
  %15 = load ptr, ptr %14, align 8
  %16 = tail call ptr @val_to_str(i32 noundef %10, ptr noundef nonnull @error_vals, ptr noundef nonnull @.str.750)
  tail call void (ptr, i32, ptr, ...) @col_append_fstr(ptr noundef %15, i32 noundef 25, ptr noundef nonnull @.str.749, ptr noundef %16)
  br label %dissect_error.exit

dissect_error.exit:                               ; preds = %5, %13
  %17 = add i32 %1, 8
  %18 = load i32, ptr @hf_ndmp_tape_flags, align 4
  %19 = load i32, ptr @ett_ndmp_tape_flags, align 4
  %20 = tail call ptr @proto_tree_add_bitmask(ptr noundef %3, ptr noundef %0, i32 noundef %17, i32 noundef %18, i32 noundef %19, ptr noundef nonnull @dissect_tape_flags.tape_flags, i32 noundef 0)
  %21 = add i32 %1, 12
  %22 = load i32, ptr @hf_ndmp_tape_file_num, align 4
  %23 = tail call ptr @proto_tree_add_item(ptr noundef %3, i32 noundef %22, ptr noundef %0, i32 noundef %21, i32 noundef 4, i32 noundef 0)
  %24 = add i32 %1, 16
  %25 = load i32, ptr @hf_ndmp_tape_soft_errors, align 4
  %26 = tail call ptr @proto_tree_add_item(ptr noundef %3, i32 noundef %25, ptr noundef %0, i32 noundef %24, i32 noundef 4, i32 noundef 0)
  %27 = add i32 %1, 20
  %28 = load i32, ptr @hf_ndmp_tape_block_size, align 4
  %29 = tail call ptr @proto_tree_add_item(ptr noundef %3, i32 noundef %28, ptr noundef %0, i32 noundef %27, i32 noundef 4, i32 noundef 0)
  %30 = add i32 %1, 24
  %31 = load i32, ptr @hf_ndmp_tape_block_no, align 4
  %32 = tail call ptr @proto_tree_add_item(ptr noundef %3, i32 noundef %31, ptr noundef %0, i32 noundef %30, i32 noundef 4, i32 noundef 0)
  %33 = add i32 %1, 28
  %34 = load i32, ptr @hf_ndmp_tape_total_space, align 4
  %35 = tail call i32 @dissect_rpc_uint64(ptr noundef %0, ptr noundef %3, i32 noundef %34, i32 noundef %33)
  %36 = load i32, ptr @hf_ndmp_tape_space_remain, align 4
  %37 = tail call i32 @dissect_rpc_uint64(ptr noundef %0, ptr noundef %3, i32 noundef %36, i32 noundef %35)
  %38 = load ptr, ptr @ndmp_conv_data, align 8
  %.not.i41 = icmp eq ptr %38, null
  br i1 %.not.i41, label %42, label %39

39:                                               ; preds = %dissect_error.exit
  %40 = load i8, ptr %38, align 8
  %41 = icmp eq i8 %40, 0
  br i1 %41, label %42, label %get_ndmp_protocol_version.exit

42:                                               ; preds = %39, %dissect_error.exit
  %43 = load i32, ptr @ndmp_default_protocol_version, align 4
  %44 = trunc i32 %43 to i8
  br label %get_ndmp_protocol_version.exit

get_ndmp_protocol_version.exit:                   ; preds = %39, %42
  %.0.i = phi i8 [ %44, %42 ], [ %40, %39 ]
  %45 = icmp eq i8 %.0.i, 4
  br i1 %45, label %50, label %46

46:                                               ; preds = %get_ndmp_protocol_version.exit
  %47 = load i32, ptr @hf_ndmp_tape_partition, align 4
  %48 = tail call ptr @proto_tree_add_item(ptr noundef %3, i32 noundef %47, ptr noundef %0, i32 noundef %37, i32 noundef 4, i32 noundef 0)
  %49 = add i32 %37, 4
  br label %50

50:                                               ; preds = %get_ndmp_protocol_version.exit, %46
  %.0 = phi i32 [ %49, %46 ], [ %37, %get_ndmp_protocol_version.exit ]
  ret i32 %.0
}